target datalayout = "e-m:e-p270:32:32-p271:32:32-p272:64:64-i64:64-i128:128-f80:128-n8:16:32:64-S128"
target triple = "x86_64-pc-linux-gnu"

%struct._zend_phar_globals = type { %struct._zend_array, %struct._zend_array, ptr, %struct._zend_array, i32, i32, ptr, i32, i32, i32, i32, i8, i8, i8, i32, i32, i32, i32, ptr, ptr, ptr, ptr, ptr, ptr, ptr, ptr, ptr, ptr, ptr, ptr, ptr, ptr, ptr, ptr, ptr, ptr, ptr, ptr, ptr, ptr, ptr, i32, i32, ptr, i32, ptr, i32, ptr, i32, ptr, %struct._zend_array }
%struct._zend_array = type { %struct._zend_refcounted_h, %union.anon.4, i32, %union.anon.6, i32, i32, i32, i32, i64, ptr }
%struct._zend_refcounted_h = type { i32, %union.anon.3 }
%union.anon.3 = type { i32 }
%union.anon.4 = type { i32 }
%union.anon.6 = type { ptr }
%struct._zval_struct = type { %union._zend_value, %union.anon, %union.anon.2 }
%union._zend_value = type { i64 }
%union.anon = type { i32 }
%union.anon.2 = type { i32 }
%struct._phar_metadata_tracker = type { %struct._zval_struct, ptr }
%struct._phar_archive_data = type { ptr, i32, ptr, i32, ptr, i32, [12 x i8], i64, i64, %struct._zend_array, %struct._zend_array, %struct._zend_array, i32, i32, i32, ptr, ptr, i32, i32, i32, ptr, %struct._phar_metadata_tracker, i32, i16 }
%struct.PHP_SHA512_CTX = type { [8 x i64], [2 x i64], [128 x i8] }
%struct.PHP_SHA256_CTX = type { [8 x i32], [2 x i32], [64 x i8] }
%struct.PHP_SHA1_CTX = type { [5 x i32], [2 x i32], [64 x i8] }
%struct.PHP_MD5_CTX = type { i32, i32, i32, i32, i32, i32, [64 x i8], [16 x i32] }

@phar_globals = external global %struct._zend_phar_globals, align 8
@.str.44 = private unnamed_addr constant [59 x i8] c"unable to write phar \22%s\22 with requested openssl signature\00", align 1
@hexChars = internal constant [17 x i8] c"0123456789ABCDEF\00", align 16

; Function Attrs: nounwind uwtable
define internal i32 @phar_hex_str(ptr noundef %0, i64 noundef %1, ptr noundef %2) #0 {
  %4 = alloca ptr, align 8
  %5 = alloca i64, align 8
  %6 = alloca ptr, align 8
  %7 = alloca i32, align 4
  %8 = alloca i64, align 8
  store ptr %0, ptr %4, align 8
  store i64 %1, ptr %5, align 8
  store ptr %2, ptr %6, align 8
  store i32 -1, ptr %7, align 4
  store i64 0, ptr %8, align 8
  %9 = load i32, ptr getelementptr inbounds (%struct._zend_phar_globals, ptr @phar_globals, i32 0, i32 8), align 4
  %10 = icmp ne i32 %9, 0
  br i1 %10, label %11, label %14

11:                                               ; preds = %3
  %12 = load i64, ptr %5, align 8
  %13 = call noalias ptr @_safe_malloc(i64 noundef %12, i64 noundef 2, i64 noundef 1)
  br label %17

14:                                               ; preds = %3
  %15 = load i64, ptr %5, align 8
  %16 = call noalias ptr @_safe_emalloc(i64 noundef %15, i64 noundef 2, i64 noundef 1)
  br label %17

17:                                               ; preds = %14, %11
  %18 = phi ptr [ %13, %11 ], [ %16, %14 ]
  %19 = load ptr, ptr %6, align 8
  store ptr %18, ptr %19, align 8
  br label %20

20:                                               ; preds = %55, %17
  %21 = load i64, ptr %8, align 8
  %22 = load i64, ptr %5, align 8
  %23 = icmp ult i64 %21, %22
  br i1 %23, label %24, label %58

24:                                               ; preds = %20
  %25 = load ptr, ptr %4, align 8
  %26 = load i64, ptr %8, align 8
  %27 = getelementptr inbounds i8, ptr %25, i64 %26
  %28 = load i8, ptr %27, align 1
  %29 = zext i8 %28 to i32
  %30 = ashr i32 %29, 4
  %31 = sext i32 %30 to i64
  %32 = getelementptr inbounds [17 x i8], ptr @hexChars, i64 0, i64 %31
  %33 = load i8, ptr %32, align 1
  %34 = load ptr, ptr %6, align 8
  %35 = load ptr, ptr %34, align 8
  %36 = load i32, ptr %7, align 4
  %37 = add nsw i32 %36, 1
  store i32 %37, ptr %7, align 4
  %38 = sext i32 %37 to i64
  %39 = getelementptr inbounds i8, ptr %35, i64 %38
  store i8 %33, ptr %39, align 1
  %40 = load ptr, ptr %4, align 8
  %41 = load i64, ptr %8, align 8
  %42 = getelementptr inbounds i8, ptr %40, i64 %41
  %43 = load i8, ptr %42, align 1
  %44 = zext i8 %43 to i32
  %45 = and i32 %44, 15
  %46 = sext i32 %45 to i64
  %47 = getelementptr inbounds [17 x i8], ptr @hexChars, i64 0, i64 %46
  %48 = load i8, ptr %47, align 1
  %49 = load ptr, ptr %6, align 8
  %50 = load ptr, ptr %49, align 8
  %51 = load i32, ptr %7, align 4
  %52 = add nsw i32 %51, 1
  store i32 %52, ptr %7, align 4
  %53 = sext i32 %52 to i64
  %54 = getelementptr inbounds i8, ptr %50, i64 %53
  store i8 %48, ptr %54, align 1
  br label %55

55:                                               ; preds = %24
  %56 = load i64, ptr %8, align 8
  %57 = add i64 %56, 1
  store i64 %57, ptr %8, align 8
  br label %20

58:                                               ; preds = %20
  %59 = load ptr, ptr %6, align 8
  %60 = load ptr, ptr %59, align 8
  %61 = load i32, ptr %7, align 4
  %62 = add nsw i32 %61, 1
  store i32 %62, ptr %7, align 4
  %63 = sext i32 %62 to i64
  %64 = getelementptr inbounds i8, ptr %60, i64 %63
  store i8 0, ptr %64, align 1
  %65 = load i32, ptr %7, align 4
  ret i32 %65
}

; Function Attrs: nounwind uwtable
define hidden i32 @phar_create_signature(ptr noundef %0, ptr noundef %1, ptr noundef %2, ptr noundef %3, ptr noundef %4) #0 {
  %6 = alloca i32, align 4
  %7 = alloca ptr, align 8
  %8 = alloca ptr, align 8
  %9 = alloca ptr, align 8
  %10 = alloca ptr, align 8
  %11 = alloca ptr, align 8
  %12 = alloca [1024 x i8], align 16
  %13 = alloca i64, align 8
  %14 = alloca [64 x i8], align 16
  %15 = alloca %struct.PHP_SHA512_CTX, align 8
  %16 = alloca [32 x i8], align 16
  %17 = alloca %struct.PHP_SHA256_CTX, align 4
  %18 = alloca ptr, align 8
  %19 = alloca i64, align 8
  %20 = alloca [20 x i8], align 16
  %21 = alloca %struct.PHP_SHA1_CTX, align 4
  %22 = alloca [16 x i8], align 16
  %23 = alloca %struct.PHP_MD5_CTX, align 4
  store ptr %0, ptr %7, align 8
  store ptr %1, ptr %8, align 8
  store ptr %2, ptr %9, align 8
  store ptr %3, ptr %10, align 8
  store ptr %4, ptr %11, align 8
  %24 = load ptr, ptr %8, align 8
  %25 = call i32 @_php_stream_seek(ptr noundef %24, i64 noundef 0, i32 noundef 0)
  %26 = load ptr, ptr %7, align 8
  %27 = getelementptr inbounds %struct._phar_archive_data, ptr %26, i32 0, i32 20
  %28 = load ptr, ptr %27, align 8
  %29 = icmp ne ptr %28, null
  br i1 %29, label %30, label %36

30:                                               ; preds = %5
  %31 = load ptr, ptr %7, align 8
  %32 = getelementptr inbounds %struct._phar_archive_data, ptr %31, i32 0, i32 20
  %33 = load ptr, ptr %32, align 8
  call void @_efree(ptr noundef %33)
  %34 = load ptr, ptr %7, align 8
  %35 = getelementptr inbounds %struct._phar_archive_data, ptr %34, i32 0, i32 20
  store ptr null, ptr %35, align 8
  br label %36

36:                                               ; preds = %30, %5
  %37 = load ptr, ptr %7, align 8
  %38 = getelementptr inbounds %struct._phar_archive_data, ptr %37, i32 0, i32 18
  %39 = load i32, ptr %38, align 4
  switch i32 %39, label %55 [
    i32 4, label %40
    i32 3, label %58
    i32 18, label %73
    i32 17, label %73
    i32 16, label %73
    i32 2, label %102
    i32 1, label %117
  ]

40:                                               ; preds = %36
  call void @PHP_SHA512InitArgs(ptr noundef %15, ptr noundef null)
  br label %41

41:                                               ; preds = %46, %40
  %42 = load ptr, ptr %8, align 8
  %43 = getelementptr inbounds [1024 x i8], ptr %12, i64 0, i64 0
  %44 = call i64 @_php_stream_read(ptr noundef %42, ptr noundef %43, i64 noundef 1024)
  store i64 %44, ptr %13, align 8
  %45 = icmp ugt i64 %44, 0
  br i1 %45, label %46, label %49

46:                                               ; preds = %41
  %47 = getelementptr inbounds [1024 x i8], ptr %12, i64 0, i64 0
  %48 = load i64, ptr %13, align 8
  call void @PHP_SHA512Update(ptr noundef %15, ptr noundef %47, i64 noundef %48)
  br label %41

49:                                               ; preds = %41
  %50 = getelementptr inbounds [64 x i8], ptr %14, i64 0, i64 0
  call void @PHP_SHA512Final(ptr noundef %50, ptr noundef %15)
  %51 = getelementptr inbounds [64 x i8], ptr %14, i64 0, i64 0
  %52 = call noalias ptr @_estrndup(ptr noundef %51, i64 noundef 64)
  %53 = load ptr, ptr %9, align 8
  store ptr %52, ptr %53, align 8
  %54 = load ptr, ptr %10, align 8
  store i64 64, ptr %54, align 8
  br label %132

55:                                               ; preds = %36
  %56 = load ptr, ptr %7, align 8
  %57 = getelementptr inbounds %struct._phar_archive_data, ptr %56, i32 0, i32 18
  store i32 3, ptr %57, align 4
  br label %58

58:                                               ; preds = %55, %36
  call void @PHP_SHA256InitArgs(ptr noundef %17, ptr noundef null)
  br label %59

59:                                               ; preds = %64, %58
  %60 = load ptr, ptr %8, align 8
  %61 = getelementptr inbounds [1024 x i8], ptr %12, i64 0, i64 0
  %62 = call i64 @_php_stream_read(ptr noundef %60, ptr noundef %61, i64 noundef 1024)
  store i64 %62, ptr %13, align 8
  %63 = icmp ugt i64 %62, 0
  br i1 %63, label %64, label %67

64:                                               ; preds = %59
  %65 = getelementptr inbounds [1024 x i8], ptr %12, i64 0, i64 0
  %66 = load i64, ptr %13, align 8
  call void @PHP_SHA256Update(ptr noundef %17, ptr noundef %65, i64 noundef %66)
  br label %59

67:                                               ; preds = %59
  %68 = getelementptr inbounds [32 x i8], ptr %16, i64 0, i64 0
  call void @PHP_SHA256Final(ptr noundef %68, ptr noundef %17)
  %69 = getelementptr inbounds [32 x i8], ptr %16, i64 0, i64 0
  %70 = call noalias ptr @_estrndup(ptr noundef %69, i64 noundef 32)
  %71 = load ptr, ptr %9, align 8
  store ptr %70, ptr %71, align 8
  %72 = load ptr, ptr %10, align 8
  store i64 32, ptr %72, align 8
  br label %132

73:                                               ; preds = %36, %36, %36
  store ptr null, ptr %18, align 8
  store i64 0, ptr %19, align 8
  %74 = load ptr, ptr %8, align 8
  %75 = call i32 @_php_stream_seek(ptr noundef %74, i64 noundef 0, i32 noundef 2)
  %76 = load ptr, ptr %8, align 8
  %77 = load ptr, ptr %8, align 8
  %78 = call i64 @_php_stream_tell(ptr noundef %77)
  %79 = load ptr, ptr getelementptr inbounds (%struct._zend_phar_globals, ptr @phar_globals, i32 0, i32 43), align 8
  %80 = load i32, ptr getelementptr inbounds (%struct._zend_phar_globals, ptr @phar_globals, i32 0, i32 44), align 8
  %81 = zext i32 %80 to i64
  %82 = load ptr, ptr %7, align 8
  %83 = getelementptr inbounds %struct._phar_archive_data, ptr %82, i32 0, i32 18
  %84 = load i32, ptr %83, align 4
  %85 = call i32 @phar_call_openssl_signverify(i32 noundef 1, ptr noundef %76, i64 noundef %78, ptr noundef %79, i64 noundef %81, ptr noundef %18, ptr noundef %19, i32 noundef %84)
  %86 = icmp eq i32 -1, %85
  br i1 %86, label %87, label %97

87:                                               ; preds = %73
  %88 = load ptr, ptr %11, align 8
  %89 = icmp ne ptr %88, null
  br i1 %89, label %90, label %96

90:                                               ; preds = %87
  %91 = load ptr, ptr %11, align 8
  %92 = load ptr, ptr %7, align 8
  %93 = getelementptr inbounds %struct._phar_archive_data, ptr %92, i32 0, i32 0
  %94 = load ptr, ptr %93, align 8
  %95 = call i64 (ptr, i64, ptr, ...) @zend_spprintf(ptr noundef %91, i64 noundef 0, ptr noundef @.str.44, ptr noundef %94)
  br label %96

96:                                               ; preds = %90, %87
  store i32 -1, ptr %6, align 4
  br label %142

97:                                               ; preds = %73
  %98 = load ptr, ptr %18, align 8
  %99 = load ptr, ptr %9, align 8
  store ptr %98, ptr %99, align 8
  %100 = load i64, ptr %19, align 8
  %101 = load ptr, ptr %10, align 8
  store i64 %100, ptr %101, align 8
  br label %132

102:                                              ; preds = %36
  call void @PHP_SHA1InitArgs(ptr noundef %21, ptr noundef null)
  br label %103

103:                                              ; preds = %108, %102
  %104 = load ptr, ptr %8, align 8
  %105 = getelementptr inbounds [1024 x i8], ptr %12, i64 0, i64 0
  %106 = call i64 @_php_stream_read(ptr noundef %104, ptr noundef %105, i64 noundef 1024)
  store i64 %106, ptr %13, align 8
  %107 = icmp ugt i64 %106, 0
  br i1 %107, label %108, label %111

108:                                              ; preds = %103
  %109 = getelementptr inbounds [1024 x i8], ptr %12, i64 0, i64 0
  %110 = load i64, ptr %13, align 8
  call void @PHP_SHA1Update(ptr noundef %21, ptr noundef %109, i64 noundef %110)
  br label %103

111:                                              ; preds = %103
  %112 = getelementptr inbounds [20 x i8], ptr %20, i64 0, i64 0
  call void @PHP_SHA1Final(ptr noundef %112, ptr noundef %21)
  %113 = getelementptr inbounds [20 x i8], ptr %20, i64 0, i64 0
  %114 = call noalias ptr @_estrndup(ptr noundef %113, i64 noundef 20)
  %115 = load ptr, ptr %9, align 8
  store ptr %114, ptr %115, align 8
  %116 = load ptr, ptr %10, align 8
  store i64 20, ptr %116, align 8
  br label %132

117:                                              ; preds = %36
  call void @PHP_MD5InitArgs(ptr noundef %23, ptr noundef null)
  br label %118

118:                                              ; preds = %123, %117
  %119 = load ptr, ptr %8, align 8
  %120 = getelementptr inbounds [1024 x i8], ptr %12, i64 0, i64 0
  %121 = call i64 @_php_stream_read(ptr noundef %119, ptr noundef %120, i64 noundef 1024)
  store i64 %121, ptr %13, align 8
  %122 = icmp ugt i64 %121, 0
  br i1 %122, label %123, label %126

123:                                              ; preds = %118
  %124 = getelementptr inbounds [1024 x i8], ptr %12, i64 0, i64 0
  %125 = load i64, ptr %13, align 8
  call void @PHP_MD5Update(ptr noundef %23, ptr noundef %124, i64 noundef %125)
  br label %118

126:                                              ; preds = %118
  %127 = getelementptr inbounds [16 x i8], ptr %22, i64 0, i64 0
  call void @PHP_MD5Final(ptr noundef %127, ptr noundef %23)
  %128 = getelementptr inbounds [16 x i8], ptr %22, i64 0, i64 0
  %129 = call noalias ptr @_estrndup(ptr noundef %128, i64 noundef 16)
  %130 = load ptr, ptr %9, align 8
  store ptr %129, ptr %130, align 8
  %131 = load ptr, ptr %10, align 8
  store i64 16, ptr %131, align 8
  br label %132

132:                                              ; preds = %126, %111, %97, %67, %49
  %133 = load ptr, ptr %9, align 8
  %134 = load ptr, ptr %133, align 8
  %135 = load ptr, ptr %10, align 8
  %136 = load i64, ptr %135, align 8
  %137 = load ptr, ptr %7, align 8
  %138 = getelementptr inbounds %struct._phar_archive_data, ptr %137, i32 0, i32 20
  %139 = call i32 @phar_hex_str(ptr noundef %134, i64 noundef %136, ptr noundef %138)
  %140 = load ptr, ptr %7, align 8
  %141 = getelementptr inbounds %struct._phar_archive_data, ptr %140, i32 0, i32 19
  store i32 %139, ptr %141, align 8
  store i32 0, ptr %6, align 4
  br label %142

142:                                              ; preds = %132, %96
  %143 = load i32, ptr %6, align 4
  ret i32 %143
}