; Function Attrs: nounwind uwtable
define hidden noundef i32 @phar_create_signature(ptr nocapture noundef %0, ptr noundef %1, ptr nocapture noundef %2, ptr nocapture noundef writeonly %3, ptr noundef %4) local_unnamed_addr #0 {
  %6 = alloca [1024 x i8], align 16
  %7 = alloca [64 x i8], align 16
  %8 = alloca %struct.PHP_SHA512_CTX, align 8
  %9 = alloca [32 x i8], align 16
  %10 = alloca %struct.PHP_SHA256_CTX, align 4
  %11 = alloca ptr, align 8
  %12 = alloca i64, align 8
  %13 = alloca [20 x i8], align 16
  %14 = alloca %struct.PHP_SHA1_CTX, align 4
  %15 = alloca [16 x i8], align 16
  %16 = alloca %struct.PHP_MD5_CTX, align 4
  %17 = tail call i32 @_php_stream_seek(ptr noundef %1, i64 noundef 0, i32 noundef 0) #15
  %18 = getelementptr inbounds i8, ptr %0, i64 288
  %19 = load ptr, ptr %18, align 8
  %.not = icmp eq ptr %19, null
  br i1 %.not, label %21, label %20

20:                                               ; preds = %5
  tail call void @_efree(ptr noundef nonnull %19) #15
  store ptr null, ptr %18, align 8
  br label %21

21:                                               ; preds = %20, %5
  %22 = getelementptr inbounds i8, ptr %0, i64 276
  %23 = load i32, ptr %22, align 4
  switch i32 %23, label %29 [
    i32 4, label %24
    i32 3, label %30
    i32 18, label %35
    i32 17, label %35
    i32 16, label %35
    i32 2, label %51
    i32 1, label %56
  ]

24:                                               ; preds = %21
  call void @PHP_SHA512InitArgs(ptr noundef nonnull %8, ptr noundef null) #15
  %25 = call i64 @_php_stream_read(ptr noundef %1, ptr noundef nonnull %6, i64 noundef 1024) #15
  %.not4451 = icmp eq i64 %25, 0
  br i1 %.not4451, label %._crit_edge54, label %.lr.ph53

.lr.ph53:                                         ; preds = %24, %.lr.ph53
  %26 = phi i64 [ %27, %.lr.ph53 ], [ %25, %24 ]
  call void @PHP_SHA512Update(ptr noundef nonnull %8, ptr noundef nonnull %6, i64 noundef %26) #15
  %27 = call i64 @_php_stream_read(ptr noundef %1, ptr noundef nonnull %6, i64 noundef 1024) #15
  %.not44 = icmp eq i64 %27, 0
  br i1 %.not44, label %._crit_edge54, label %.lr.ph53

._crit_edge54:                                    ; preds = %.lr.ph53, %24
  call void @PHP_SHA512Final(ptr noundef nonnull %7, ptr noundef nonnull %8) #15
  %28 = call noalias ptr @_estrndup(ptr noundef nonnull %7, i64 noundef 64) #15
  store ptr %28, ptr %2, align 8
  br label %61

29:                                               ; preds = %21
  store i32 3, ptr %22, align 4
  br label %30

30:                                               ; preds = %29, %21
  call void @PHP_SHA256InitArgs(ptr noundef nonnull %10, ptr noundef null) #15
  %31 = call i64 @_php_stream_read(ptr noundef %1, ptr noundef nonnull %6, i64 noundef 1024) #15
  %.not4555 = icmp eq i64 %31, 0
  br i1 %.not4555, label %._crit_edge58, label %.lr.ph57

.lr.ph57:                                         ; preds = %30, %.lr.ph57
  %32 = phi i64 [ %33, %.lr.ph57 ], [ %31, %30 ]
  call void @PHP_SHA256Update(ptr noundef nonnull %10, ptr noundef nonnull %6, i64 noundef %32) #15
  %33 = call i64 @_php_stream_read(ptr noundef %1, ptr noundef nonnull %6, i64 noundef 1024) #15
  %.not45 = icmp eq i64 %33, 0
  br i1 %.not45, label %._crit_edge58, label %.lr.ph57

._crit_edge58:                                    ; preds = %.lr.ph57, %30
  call void @PHP_SHA256Final(ptr noundef nonnull %9, ptr noundef nonnull %10) #15
  %34 = call noalias ptr @_estrndup(ptr noundef nonnull %9, i64 noundef 32) #15
  store ptr %34, ptr %2, align 8
  br label %61

35:                                               ; preds = %21, %21, %21
  store ptr null, ptr %11, align 8
  store i64 0, ptr %12, align 8
  %36 = tail call i32 @_php_stream_seek(ptr noundef %1, i64 noundef 0, i32 noundef 2) #15
  %37 = tail call i64 @_php_stream_tell(ptr noundef %1) #15
  %38 = load ptr, ptr getelementptr inbounds (%struct._zend_phar_globals, ptr @phar_globals, i64 0, i32 43), align 8
  %39 = load i32, ptr getelementptr inbounds (%struct._zend_phar_globals, ptr @phar_globals, i64 0, i32 44), align 8
  %40 = zext i32 %39 to i64
  %41 = load i32, ptr %22, align 4
  %42 = call fastcc i32 @phar_call_openssl_signverify(i32 noundef 1, ptr noundef %1, i64 noundef %37, ptr noundef %38, i64 noundef %40, ptr noundef nonnull %11, ptr noundef nonnull %12, i32 noundef %41), !range !5
  %43 = icmp eq i32 %42, -1
  br i1 %43, label %44, label %48

44:                                               ; preds = %35
  %.not43 = icmp eq ptr %4, null
  br i1 %.not43, label %93, label %45

45:                                               ; preds = %44
  %46 = load ptr, ptr %0, align 8
  %47 = tail call i64 (ptr, i64, ptr, ...) @zend_spprintf(ptr noundef nonnull %4, i64 noundef 0, ptr noundef nonnull @.str.44, ptr noundef %46) #15
  br label %93

48:                                               ; preds = %35
  %49 = load ptr, ptr %11, align 8
  store ptr %49, ptr %2, align 8
  %50 = load i64, ptr %12, align 8
  br label %61

51:                                               ; preds = %21
  call void @PHP_SHA1InitArgs(ptr noundef nonnull %14, ptr noundef null) #15
  %52 = call i64 @_php_stream_read(ptr noundef %1, ptr noundef nonnull %6, i64 noundef 1024) #15
  %.not4247 = icmp eq i64 %52, 0
  br i1 %.not4247, label %._crit_edge50, label %.lr.ph49

.lr.ph49:                                         ; preds = %51, %.lr.ph49
  %53 = phi i64 [ %54, %.lr.ph49 ], [ %52, %51 ]
  call void @PHP_SHA1Update(ptr noundef nonnull %14, ptr noundef nonnull %6, i64 noundef %53) #15
  %54 = call i64 @_php_stream_read(ptr noundef %1, ptr noundef nonnull %6, i64 noundef 1024) #15
  %.not42 = icmp eq i64 %54, 0
  br i1 %.not42, label %._crit_edge50, label %.lr.ph49

._crit_edge50:                                    ; preds = %.lr.ph49, %51
  call void @PHP_SHA1Final(ptr noundef nonnull %13, ptr noundef nonnull %14) #15
  %55 = call noalias ptr @_estrndup(ptr noundef nonnull %13, i64 noundef 20) #15
  store ptr %55, ptr %2, align 8
  br label %61

56:                                               ; preds = %21
  call void @PHP_MD5InitArgs(ptr noundef nonnull %16, ptr noundef null) #15
  %57 = call i64 @_php_stream_read(ptr noundef %1, ptr noundef nonnull %6, i64 noundef 1024) #15
  %.not4146 = icmp eq i64 %57, 0
  br i1 %.not4146, label %._crit_edge, label %.lr.ph

.lr.ph:                                           ; preds = %56, %.lr.ph
  %58 = phi i64 [ %59, %.lr.ph ], [ %57, %56 ]
  call void @PHP_MD5Update(ptr noundef nonnull %16, ptr noundef nonnull %6, i64 noundef %58) #15
  %59 = call i64 @_php_stream_read(ptr noundef %1, ptr noundef nonnull %6, i64 noundef 1024) #15
  %.not41 = icmp eq i64 %59, 0
  br i1 %.not41, label %._crit_edge, label %.lr.ph

._crit_edge:                                      ; preds = %.lr.ph, %56
  call void @PHP_MD5Final(ptr noundef nonnull %15, ptr noundef nonnull %16) #15
  %60 = call noalias ptr @_estrndup(ptr noundef nonnull %15, i64 noundef 16) #15
  store ptr %60, ptr %2, align 8
  br label %61

61:                                               ; preds = %._crit_edge, %._crit_edge50, %48, %._crit_edge58, %._crit_edge54
  %.sink = phi i64 [ 16, %._crit_edge ], [ 20, %._crit_edge50 ], [ %50, %48 ], [ 32, %._crit_edge58 ], [ 64, %._crit_edge54 ]
  store i64 %.sink, ptr %3, align 8
  %62 = load ptr, ptr %2, align 8
  %63 = load i32, ptr getelementptr inbounds (%struct._zend_phar_globals, ptr @phar_globals, i64 0, i32 8), align 4
  %.not.i = icmp eq i32 %63, 0
  br i1 %.not.i, label %66, label %64

64:                                               ; preds = %61
  %65 = call noalias ptr @_safe_malloc(i64 noundef %.sink, i64 noundef 2, i64 noundef 1) #15
  br label %68

66:                                               ; preds = %61
  %67 = call noalias ptr @_safe_emalloc(i64 noundef %.sink, i64 noundef 2, i64 noundef 1) #15
  br label %68

68:                                               ; preds = %66, %64
  %69 = phi ptr [ %65, %64 ], [ %67, %66 ]
  store ptr %69, ptr %18, align 8
  %.not19.i = icmp eq i64 %.sink, 0
  br i1 %.not19.i, label %phar_hex_str.exit, label %.lr.ph.i

.lr.ph.i:                                         ; preds = %68, %.lr.ph.i
  %indvars.iv.i = phi i64 [ %indvars.iv.next.i, %.lr.ph.i ], [ -1, %68 ]
  %.018.i = phi i64 [ %86, %.lr.ph.i ], [ 0, %68 ]
  %70 = getelementptr inbounds i8, ptr %62, i64 %.018.i
  %71 = load i8, ptr %70, align 1
  %72 = lshr i8 %71, 4
  %73 = zext nneg i8 %72 to i64
  %74 = getelementptr inbounds [17 x i8], ptr @hexChars, i64 0, i64 %73
  %75 = load i8, ptr %74, align 1
  %76 = load ptr, ptr %18, align 8
  %77 = getelementptr i8, ptr %76, i64 %indvars.iv.i
  %78 = getelementptr i8, ptr %77, i64 1
  store i8 %75, ptr %78, align 1
  %79 = load i8, ptr %70, align 1
  %80 = and i8 %79, 15
  %81 = zext nneg i8 %80 to i64
  %82 = getelementptr inbounds [17 x i8], ptr @hexChars, i64 0, i64 %81
  %83 = load i8, ptr %82, align 1
  %84 = load ptr, ptr %18, align 8
  %indvars.iv.next.i = add nsw i64 %indvars.iv.i, 2
  %85 = getelementptr inbounds i8, ptr %84, i64 %indvars.iv.next.i
  store i8 %83, ptr %85, align 1
  %86 = add nuw i64 %.018.i, 1
  %exitcond.not.i = icmp eq i64 %86, %.sink
  br i1 %exitcond.not.i, label %._crit_edge.loopexit.i, label %.lr.ph.i

._crit_edge.loopexit.i:                           ; preds = %.lr.ph.i
  %87 = trunc i64 %indvars.iv.next.i to i32
  %.pre.i = load ptr, ptr %18, align 8
  %88 = add nsw i32 %87, 1
  br label %phar_hex_str.exit

phar_hex_str.exit:                                ; preds = %68, %._crit_edge.loopexit.i
  %89 = phi ptr [ %69, %68 ], [ %.pre.i, %._crit_edge.loopexit.i ]
  %.016.lcssa.i = phi i32 [ 0, %68 ], [ %88, %._crit_edge.loopexit.i ]
  %90 = sext i32 %.016.lcssa.i to i64
  %91 = getelementptr inbounds i8, ptr %89, i64 %90
  store i8 0, ptr %91, align 1
  %92 = getelementptr inbounds i8, ptr %0, i64 280
  store i32 %.016.lcssa.i, ptr %92, align 8
  br label %93

93:                                               ; preds = %44, %45, %phar_hex_str.exit
  %.0 = phi i32 [ 0, %phar_hex_str.exit ], [ -1, %45 ], [ -1, %44 ]
  ret i32 %.0
}